; Function Attrs: nounwind uwtable
define hidden void @_PyDict_DebugMallocStats(ptr noundef %0) local_unnamed_addr #0 {
  %2 = tail call align 8 ptr @llvm.threadlocal.address.p0(ptr align 8 @_Py_tss_tstate)
  %3 = load ptr, ptr %2, align 8, !tbaa !4
  %4 = getelementptr inbounds nuw i8, ptr %3, i64 16
  %5 = load ptr, ptr %4, align 8, !tbaa !9
  %6 = getelementptr inbounds nuw i8, ptr %5, i64 11440
  %7 = load i64, ptr %6, align 8, !tbaa !21
  %8 = trunc i64 %7 to i32
  tail call void @_PyDebugAllocatorStats(ptr noundef %0, ptr noundef nonnull @.str, i32 noundef %8, i64 noundef 48) #23
  %9 = load ptr, ptr %2, align 8, !tbaa !4
  %10 = getelementptr inbounds nuw i8, ptr %9, i64 16
  %11 = load ptr, ptr %10, align 8, !tbaa !9
  %12 = getelementptr inbounds nuw i8, ptr %11, i64 11456
  %13 = load i64, ptr %12, align 8, !tbaa !24
  %14 = trunc i64 %13 to i32
  tail call void @_PyDebugAllocatorStats(ptr noundef %0, ptr noundef nonnull @.str.1, i32 noundef %14, i64 noundef 32) #23
  ret void
}